target datalayout = "e-m:e-p270:32:32-p271:32:32-p272:64:64-i64:64-i128:128-f80:128-n8:16:32:64-S128"
target triple = "x86_64-pc-linux-gnu"

; Function Attrs: nounwind uwtable
define i64 @H5VM_memcpyvv(ptr noundef %0, i64 noundef %1, ptr noundef %2, ptr noundef %3, ptr noundef %4, ptr noundef %5, i64 noundef %6, ptr noundef %7, ptr noundef %8, ptr noundef %9) #0 {
  %11 = alloca ptr, align 8
  %12 = alloca i64, align 8
  %13 = alloca ptr, align 8
  %14 = alloca ptr, align 8
  %15 = alloca ptr, align 8
  %16 = alloca ptr, align 8
  %17 = alloca i64, align 8
  %18 = alloca ptr, align 8
  %19 = alloca ptr, align 8
  %20 = alloca ptr, align 8
  %21 = alloca ptr, align 8
  %22 = alloca ptr, align 8
  %23 = alloca ptr, align 8
  %24 = alloca ptr, align 8
  %25 = alloca ptr, align 8
  %26 = alloca ptr, align 8
  %27 = alloca ptr, align 8
  %28 = alloca ptr, align 8
  %29 = alloca i64, align 8
  %30 = alloca i64, align 8
  %31 = alloca i64, align 8
  %32 = alloca i64, align 8
  store ptr %0, ptr %11, align 8
  store i64 %1, ptr %12, align 8
  store ptr %2, ptr %13, align 8
  store ptr %3, ptr %14, align 8
  store ptr %4, ptr %15, align 8
  store ptr %5, ptr %16, align 8
  store i64 %6, ptr %17, align 8
  store ptr %7, ptr %18, align 8
  store ptr %8, ptr %19, align 8
  store ptr %9, ptr %20, align 8
  store i64 0, ptr %32, align 8
  %33 = load ptr, ptr %14, align 8
  %34 = load ptr, ptr %13, align 8
  %35 = load i64, ptr %34, align 8
  %36 = getelementptr inbounds i64, ptr %33, i64 %35
  store ptr %36, ptr %27, align 8
  %37 = load ptr, ptr %15, align 8
  %38 = load ptr, ptr %13, align 8
  %39 = load i64, ptr %38, align 8
  %40 = getelementptr inbounds i64, ptr %37, i64 %39
  store ptr %40, ptr %25, align 8
  %41 = load ptr, ptr %19, align 8
  %42 = load ptr, ptr %18, align 8
  %43 = load i64, ptr %42, align 8
  %44 = getelementptr inbounds i64, ptr %41, i64 %43
  store ptr %44, ptr %28, align 8
  %45 = load ptr, ptr %20, align 8
  %46 = load ptr, ptr %18, align 8
  %47 = load i64, ptr %46, align 8
  %48 = getelementptr inbounds i64, ptr %45, i64 %47
  store ptr %48, ptr %26, align 8
  %49 = load ptr, ptr %27, align 8
  %50 = load i64, ptr %49, align 8
  store i64 %50, ptr %29, align 8
  %51 = load ptr, ptr %28, align 8
  %52 = load i64, ptr %51, align 8
  store i64 %52, ptr %30, align 8
  %53 = load ptr, ptr %15, align 8
  %54 = load i64, ptr %12, align 8
  %55 = getelementptr inbounds i64, ptr %53, i64 %54
  store ptr %55, ptr %23, align 8
  %56 = load ptr, ptr %20, align 8
  %57 = load i64, ptr %17, align 8
  %58 = getelementptr inbounds i64, ptr %56, i64 %57
  store ptr %58, ptr %24, align 8
  %59 = load ptr, ptr %11, align 8
  %60 = load ptr, ptr %25, align 8
  %61 = load i64, ptr %60, align 8
  %62 = getelementptr inbounds i8, ptr %59, i64 %61
  store ptr %62, ptr %21, align 8
  %63 = load ptr, ptr %16, align 8
  %64 = load ptr, ptr %26, align 8
  %65 = load i64, ptr %64, align 8
  %66 = getelementptr inbounds i8, ptr %63, i64 %65
  store ptr %66, ptr %22, align 8
  %67 = load i64, ptr %30, align 8
  %68 = load i64, ptr %29, align 8
  %69 = icmp ult i64 %67, %68
  br i1 %69, label %70, label %119

70:                                               ; preds = %10
  br label %71

71:                                               ; preds = %222, %170, %70
  store i64 0, ptr %31, align 8
  br label %72

72:                                               ; preds = %106, %71
  %73 = load ptr, ptr %21, align 8
  %74 = load ptr, ptr %22, align 8
  %75 = load i64, ptr %30, align 8
  call void @llvm.memcpy.p0.p0.i64(ptr align 1 %73, ptr align 1 %74, i64 %75, i1 false)
  %76 = load i64, ptr %30, align 8
  %77 = load i64, ptr %31, align 8
  %78 = add i64 %77, %76
  store i64 %78, ptr %31, align 8
  %79 = load i64, ptr %30, align 8
  %80 = load i64, ptr %29, align 8
  %81 = sub i64 %80, %79
  store i64 %81, ptr %29, align 8
  %82 = load ptr, ptr %26, align 8
  %83 = getelementptr inbounds i64, ptr %82, i32 1
  store ptr %83, ptr %26, align 8
  %84 = load ptr, ptr %26, align 8
  %85 = load ptr, ptr %24, align 8
  %86 = icmp uge ptr %84, %85
  br i1 %86, label %87, label %94

87:                                               ; preds = %72
  %88 = load i64, ptr %31, align 8
  %89 = load ptr, ptr %25, align 8
  %90 = load i64, ptr %89, align 8
  %91 = add i64 %90, %88
  store i64 %91, ptr %89, align 8
  %92 = load i64, ptr %29, align 8
  %93 = load ptr, ptr %27, align 8
  store i64 %92, ptr %93, align 8
  br label %223

94:                                               ; preds = %72
  %95 = load i64, ptr %30, align 8
  %96 = load ptr, ptr %21, align 8
  %97 = getelementptr inbounds i8, ptr %96, i64 %95
  store ptr %97, ptr %21, align 8
  %98 = load ptr, ptr %28, align 8
  %99 = getelementptr inbounds i64, ptr %98, i32 1
  store ptr %99, ptr %28, align 8
  %100 = load ptr, ptr %28, align 8
  %101 = load i64, ptr %100, align 8
  store i64 %101, ptr %30, align 8
  %102 = load ptr, ptr %16, align 8
  %103 = load ptr, ptr %26, align 8
  %104 = load i64, ptr %103, align 8
  %105 = getelementptr inbounds i8, ptr %102, i64 %104
  store ptr %105, ptr %22, align 8
  br label %106

106:                                              ; preds = %94
  %107 = load i64, ptr %30, align 8
  %108 = load i64, ptr %29, align 8
  %109 = icmp ult i64 %107, %108
  br i1 %109, label %72, label %110

110:                                              ; preds = %106
  %111 = load i64, ptr %31, align 8
  %112 = load i64, ptr %32, align 8
  %113 = add nsw i64 %112, %111
  store i64 %113, ptr %32, align 8
  %114 = load i64, ptr %29, align 8
  %115 = load i64, ptr %30, align 8
  %116 = icmp ult i64 %114, %115
  br i1 %116, label %117, label %118

117:                                              ; preds = %110
  br label %124

118:                                              ; preds = %110
  br label %173

119:                                              ; preds = %10
  %120 = load i64, ptr %29, align 8
  %121 = load i64, ptr %30, align 8
  %122 = icmp ult i64 %120, %121
  br i1 %122, label %123, label %172

123:                                              ; preds = %119
  br label %124

124:                                              ; preds = %221, %123, %117
  store i64 0, ptr %31, align 8
  br label %125

125:                                              ; preds = %159, %124
  %126 = load ptr, ptr %21, align 8
  %127 = load ptr, ptr %22, align 8
  %128 = load i64, ptr %29, align 8
  call void @llvm.memcpy.p0.p0.i64(ptr align 1 %126, ptr align 1 %127, i64 %128, i1 false)
  %129 = load i64, ptr %29, align 8
  %130 = load i64, ptr %31, align 8
  %131 = add i64 %130, %129
  store i64 %131, ptr %31, align 8
  %132 = load i64, ptr %29, align 8
  %133 = load i64, ptr %30, align 8
  %134 = sub i64 %133, %132
  store i64 %134, ptr %30, align 8
  %135 = load ptr, ptr %25, align 8
  %136 = getelementptr inbounds i64, ptr %135, i32 1
  store ptr %136, ptr %25, align 8
  %137 = load ptr, ptr %25, align 8
  %138 = load ptr, ptr %23, align 8
  %139 = icmp uge ptr %137, %138
  br i1 %139, label %140, label %147

140:                                              ; preds = %125
  %141 = load i64, ptr %31, align 8
  %142 = load ptr, ptr %26, align 8
  %143 = load i64, ptr %142, align 8
  %144 = add i64 %143, %141
  store i64 %144, ptr %142, align 8
  %145 = load i64, ptr %30, align 8
  %146 = load ptr, ptr %28, align 8
  store i64 %145, ptr %146, align 8
  br label %223

147:                                              ; preds = %125
  %148 = load i64, ptr %29, align 8
  %149 = load ptr, ptr %22, align 8
  %150 = getelementptr inbounds i8, ptr %149, i64 %148
  store ptr %150, ptr %22, align 8
  %151 = load ptr, ptr %27, align 8
  %152 = getelementptr inbounds i64, ptr %151, i32 1
  store ptr %152, ptr %27, align 8
  %153 = load ptr, ptr %27, align 8
  %154 = load i64, ptr %153, align 8
  store i64 %154, ptr %29, align 8
  %155 = load ptr, ptr %11, align 8
  %156 = load ptr, ptr %25, align 8
  %157 = load i64, ptr %156, align 8
  %158 = getelementptr inbounds i8, ptr %155, i64 %157
  store ptr %158, ptr %21, align 8
  br label %159

159:                                              ; preds = %147
  %160 = load i64, ptr %29, align 8
  %161 = load i64, ptr %30, align 8
  %162 = icmp ult i64 %160, %161
  br i1 %162, label %125, label %163

163:                                              ; preds = %159
  %164 = load i64, ptr %31, align 8
  %165 = load i64, ptr %32, align 8
  %166 = add nsw i64 %165, %164
  store i64 %166, ptr %32, align 8
  %167 = load i64, ptr %30, align 8
  %168 = load i64, ptr %29, align 8
  %169 = icmp ult i64 %167, %168
  br i1 %169, label %170, label %171

170:                                              ; preds = %163
  br label %71

171:                                              ; preds = %163
  br label %173

172:                                              ; preds = %119
  br label %173

173:                                              ; preds = %172, %171, %118
  store i64 0, ptr %31, align 8
  br label %174

174:                                              ; preds = %210, %173
  %175 = load ptr, ptr %21, align 8
  %176 = load ptr, ptr %22, align 8
  %177 = load i64, ptr %29, align 8
  call void @llvm.memcpy.p0.p0.i64(ptr align 1 %175, ptr align 1 %176, i64 %177, i1 false)
  %178 = load i64, ptr %29, align 8
  %179 = load i64, ptr %31, align 8
  %180 = add i64 %179, %178
  store i64 %180, ptr %31, align 8
  %181 = load ptr, ptr %26, align 8
  %182 = getelementptr inbounds i64, ptr %181, i32 1
  store ptr %182, ptr %26, align 8
  %183 = load ptr, ptr %25, align 8
  %184 = getelementptr inbounds i64, ptr %183, i32 1
  store ptr %184, ptr %25, align 8
  %185 = load ptr, ptr %26, align 8
  %186 = load ptr, ptr %24, align 8
  %187 = icmp uge ptr %185, %186
  br i1 %187, label %192, label %188

188:                                              ; preds = %174
  %189 = load ptr, ptr %25, align 8
  %190 = load ptr, ptr %23, align 8
  %191 = icmp uge ptr %189, %190
  br i1 %191, label %192, label %193

192:                                              ; preds = %188, %174
  br label %223

193:                                              ; preds = %188
  %194 = load ptr, ptr %28, align 8
  %195 = getelementptr inbounds i64, ptr %194, i32 1
  store ptr %195, ptr %28, align 8
  %196 = load ptr, ptr %28, align 8
  %197 = load i64, ptr %196, align 8
  store i64 %197, ptr %30, align 8
  %198 = load ptr, ptr %16, align 8
  %199 = load ptr, ptr %26, align 8
  %200 = load i64, ptr %199, align 8
  %201 = getelementptr inbounds i8, ptr %198, i64 %200
  store ptr %201, ptr %22, align 8
  %202 = load ptr, ptr %27, align 8
  %203 = getelementptr inbounds i64, ptr %202, i32 1
  store ptr %203, ptr %27, align 8
  %204 = load ptr, ptr %27, align 8
  %205 = load i64, ptr %204, align 8
  store i64 %205, ptr %29, align 8
  %206 = load ptr, ptr %11, align 8
  %207 = load ptr, ptr %25, align 8
  %208 = load i64, ptr %207, align 8
  %209 = getelementptr inbounds i8, ptr %206, i64 %208
  store ptr %209, ptr %21, align 8
  br label %210

210:                                              ; preds = %193
  %211 = load i64, ptr %29, align 8
  %212 = load i64, ptr %30, align 8
  %213 = icmp eq i64 %211, %212
  br i1 %213, label %174, label %214

214:                                              ; preds = %210
  %215 = load i64, ptr %31, align 8
  %216 = load i64, ptr %32, align 8
  %217 = add nsw i64 %216, %215
  store i64 %217, ptr %32, align 8
  %218 = load i64, ptr %29, align 8
  %219 = load i64, ptr %30, align 8
  %220 = icmp ult i64 %218, %219
  br i1 %220, label %221, label %222

221:                                              ; preds = %214
  br label %124

222:                                              ; preds = %214
  br label %71

223:                                              ; preds = %192, %140, %87
  %224 = load i64, ptr %31, align 8
  %225 = load i64, ptr %32, align 8
  %226 = add nsw i64 %225, %224
  store i64 %226, ptr %32, align 8
  %227 = load ptr, ptr %25, align 8
  %228 = load ptr, ptr %15, align 8
  %229 = ptrtoint ptr %227 to i64
  %230 = ptrtoint ptr %228 to i64
  %231 = sub i64 %229, %230
  %232 = sdiv exact i64 %231, 8
  %233 = load ptr, ptr %13, align 8
  store i64 %232, ptr %233, align 8
  %234 = load ptr, ptr %26, align 8
  %235 = load ptr, ptr %20, align 8
  %236 = ptrtoint ptr %234 to i64
  %237 = ptrtoint ptr %235 to i64
  %238 = sub i64 %236, %237
  %239 = sdiv exact i64 %238, 8
  %240 = load ptr, ptr %18, align 8
  store i64 %239, ptr %240, align 8
  %241 = load i64, ptr %32, align 8
  ret i64 %241
}