; Function Attrs: nofree norecurse nosync nounwind memory(readwrite, inaccessiblemem: none) uwtable
define i64 @H5VM_memcpyvv(ptr nocapture noundef writeonly %0, i64 noundef %1, ptr nocapture noundef %2, ptr nocapture noundef %3, ptr noundef %4, ptr nocapture noundef readonly %5, i64 noundef %6, ptr nocapture noundef %7, ptr nocapture noundef %8, ptr noundef %9) local_unnamed_addr #2 {
  %11 = load i64, ptr %2, align 8
  %12 = getelementptr inbounds i64, ptr %3, i64 %11
  %13 = getelementptr inbounds i64, ptr %4, i64 %11
  %14 = load i64, ptr %7, align 8
  %15 = getelementptr inbounds i64, ptr %8, i64 %14
  %16 = getelementptr inbounds i64, ptr %9, i64 %14
  %17 = load i64, ptr %12, align 8
  %18 = load i64, ptr %15, align 8
  %19 = getelementptr inbounds i64, ptr %4, i64 %1
  %20 = getelementptr inbounds i64, ptr %9, i64 %6
  %21 = load i64, ptr %13, align 8
  %22 = getelementptr inbounds i8, ptr %0, i64 %21
  %23 = load i64, ptr %16, align 8
  %24 = getelementptr inbounds i8, ptr %5, i64 %23
  %25 = icmp ult i64 %18, %17
  br i1 %25, label %26, label %44

26:                                               ; preds = %79, %61, %10
  %.0147 = phi ptr [ %24, %10 ], [ %55, %61 ], [ %73, %79 ]
  %.0141 = phi ptr [ %22, %10 ], [ %59, %61 ], [ %77, %79 ]
  %.0135 = phi ptr [ %13, %10 ], [ %50, %61 ], [ %68, %79 ]
  %.0129 = phi ptr [ %16, %10 ], [ %.2131, %61 ], [ %67, %79 ]
  %.0124 = phi ptr [ %12, %10 ], [ %56, %61 ], [ %74, %79 ]
  %.0119 = phi ptr [ %15, %10 ], [ %.2121, %61 ], [ %70, %79 ]
  %.0115 = phi i64 [ %17, %10 ], [ %57, %61 ], [ %75, %79 ]
  %.0111 = phi i64 [ %18, %10 ], [ %49, %61 ], [ %71, %79 ]
  %.0 = phi i64 [ 0, %10 ], [ %62, %61 ], [ %80, %79 ]
  br label %27

27:                                               ; preds = %34, %26
  %.1148 = phi ptr [ %.0147, %26 ], [ %39, %34 ]
  %.1142 = phi ptr [ %.0141, %26 ], [ %35, %34 ]
  %.1130 = phi ptr [ %.0129, %26 ], [ %30, %34 ]
  %.1120 = phi ptr [ %.0119, %26 ], [ %36, %34 ]
  %.1116 = phi i64 [ %.0115, %26 ], [ %29, %34 ]
  %.1112 = phi i64 [ %.0111, %26 ], [ %37, %34 ]
  %.0107 = phi i64 [ 0, %26 ], [ %28, %34 ]
  tail call void @llvm.memcpy.p0.p0.i64(ptr align 1 %.1142, ptr align 1 %.1148, i64 %.1112, i1 false)
  %28 = add i64 %.0107, %.1112
  %29 = sub i64 %.1116, %.1112
  %30 = getelementptr inbounds i8, ptr %.1130, i64 8
  %.not = icmp ult ptr %30, %20
  br i1 %.not, label %34, label %31

31:                                               ; preds = %27
  %32 = load i64, ptr %.0135, align 8
  %33 = add i64 %32, %28
  store i64 %33, ptr %.0135, align 8
  store i64 %29, ptr %.0124, align 8
  br label %.loopexit

34:                                               ; preds = %27
  %35 = getelementptr inbounds i8, ptr %.1142, i64 %.1112
  %36 = getelementptr inbounds i8, ptr %.1120, i64 8
  %37 = load i64, ptr %36, align 8
  %38 = load i64, ptr %30, align 8
  %39 = getelementptr inbounds i8, ptr %5, i64 %38
  %40 = icmp ult i64 %37, %29
  br i1 %40, label %27, label %41

41:                                               ; preds = %34
  %42 = add nsw i64 %28, %.0
  %43 = icmp ult i64 %29, %37
  br i1 %43, label %46, label %64

44:                                               ; preds = %10
  %45 = icmp ult i64 %17, %18
  br i1 %45, label %46, label %64

46:                                               ; preds = %79, %44, %41
  %.2149 = phi ptr [ %39, %41 ], [ %73, %79 ], [ %24, %44 ]
  %.2143 = phi ptr [ %35, %41 ], [ %77, %79 ], [ %22, %44 ]
  %.1136 = phi ptr [ %.0135, %41 ], [ %68, %79 ], [ %13, %44 ]
  %.2131 = phi ptr [ %30, %41 ], [ %67, %79 ], [ %16, %44 ]
  %.1125 = phi ptr [ %.0124, %41 ], [ %74, %79 ], [ %12, %44 ]
  %.2121 = phi ptr [ %36, %41 ], [ %70, %79 ], [ %15, %44 ]
  %.2117 = phi i64 [ %29, %41 ], [ %75, %79 ], [ %17, %44 ]
  %.2113 = phi i64 [ %37, %41 ], [ %71, %79 ], [ %18, %44 ]
  %.1 = phi i64 [ %42, %41 ], [ %80, %79 ], [ 0, %44 ]
  br label %47

47:                                               ; preds = %54, %46
  %.3150 = phi ptr [ %.2149, %46 ], [ %55, %54 ]
  %.3144 = phi ptr [ %.2143, %46 ], [ %59, %54 ]
  %.2137 = phi ptr [ %.1136, %46 ], [ %50, %54 ]
  %.2126 = phi ptr [ %.1125, %46 ], [ %56, %54 ]
  %.3118 = phi i64 [ %.2117, %46 ], [ %57, %54 ]
  %.3114 = phi i64 [ %.2113, %46 ], [ %49, %54 ]
  %.1108 = phi i64 [ 0, %46 ], [ %48, %54 ]
  tail call void @llvm.memcpy.p0.p0.i64(ptr align 1 %.3144, ptr align 1 %.3150, i64 %.3118, i1 false)
  %48 = add i64 %.1108, %.3118
  %49 = sub i64 %.3114, %.3118
  %50 = getelementptr inbounds i8, ptr %.2137, i64 8
  %.not176 = icmp ult ptr %50, %19
  br i1 %.not176, label %54, label %51

51:                                               ; preds = %47
  %52 = load i64, ptr %.2131, align 8
  %53 = add i64 %52, %48
  store i64 %53, ptr %.2131, align 8
  store i64 %49, ptr %.2121, align 8
  br label %.loopexit

54:                                               ; preds = %47
  %55 = getelementptr inbounds i8, ptr %.3150, i64 %.3118
  %56 = getelementptr inbounds i8, ptr %.2126, i64 8
  %57 = load i64, ptr %56, align 8
  %58 = load i64, ptr %50, align 8
  %59 = getelementptr inbounds i8, ptr %0, i64 %58
  %60 = icmp ult i64 %57, %49
  br i1 %60, label %47, label %61

61:                                               ; preds = %54
  %62 = add nsw i64 %48, %.1
  %63 = icmp ult i64 %49, %57
  br i1 %63, label %26, label %64

64:                                               ; preds = %44, %61, %41
  %.4151 = phi ptr [ %55, %61 ], [ %39, %41 ], [ %24, %44 ]
  %.4145 = phi ptr [ %59, %61 ], [ %35, %41 ], [ %22, %44 ]
  %.3138 = phi ptr [ %50, %61 ], [ %.0135, %41 ], [ %13, %44 ]
  %.3132 = phi ptr [ %.2131, %61 ], [ %30, %41 ], [ %16, %44 ]
  %.3127 = phi ptr [ %56, %61 ], [ %.0124, %41 ], [ %12, %44 ]
  %.3122 = phi ptr [ %.2121, %61 ], [ %36, %41 ], [ %15, %44 ]
  %.4 = phi i64 [ %57, %61 ], [ %29, %41 ], [ %17, %44 ]
  %.2 = phi i64 [ %62, %61 ], [ %42, %41 ], [ 0, %44 ]
  br label %65

65:                                               ; preds = %69, %64
  %.5152 = phi ptr [ %.4151, %64 ], [ %73, %69 ]
  %.5146 = phi ptr [ %.4145, %64 ], [ %77, %69 ]
  %.4139 = phi ptr [ %.3138, %64 ], [ %68, %69 ]
  %.4133 = phi ptr [ %.3132, %64 ], [ %67, %69 ]
  %.4128 = phi ptr [ %.3127, %64 ], [ %74, %69 ]
  %.4123 = phi ptr [ %.3122, %64 ], [ %70, %69 ]
  %.5 = phi i64 [ %.4, %64 ], [ %71, %69 ]
  %.2109 = phi i64 [ 0, %64 ], [ %66, %69 ]
  tail call void @llvm.memcpy.p0.p0.i64(ptr align 1 %.5146, ptr align 1 %.5152, i64 %.5, i1 false)
  %66 = add i64 %.2109, %.5
  %67 = getelementptr inbounds i8, ptr %.4133, i64 8
  %68 = getelementptr inbounds i8, ptr %.4139, i64 8
  %.not177 = icmp ult ptr %67, %20
  %.not178 = icmp ult ptr %68, %19
  %or.cond = select i1 %.not177, i1 %.not178, i1 false
  br i1 %or.cond, label %69, label %.loopexit

69:                                               ; preds = %65
  %70 = getelementptr inbounds i8, ptr %.4123, i64 8
  %71 = load i64, ptr %70, align 8
  %72 = load i64, ptr %67, align 8
  %73 = getelementptr inbounds i8, ptr %5, i64 %72
  %74 = getelementptr inbounds i8, ptr %.4128, i64 8
  %75 = load i64, ptr %74, align 8
  %76 = load i64, ptr %68, align 8
  %77 = getelementptr inbounds i8, ptr %0, i64 %76
  %78 = icmp eq i64 %75, %71
  br i1 %78, label %65, label %79

79:                                               ; preds = %69
  %80 = add nsw i64 %66, %.2
  %81 = icmp ult i64 %75, %71
  br i1 %81, label %46, label %26

.loopexit:                                        ; preds = %65, %51, %31
  %.5140 = phi ptr [ %.0135, %31 ], [ %50, %51 ], [ %68, %65 ]
  %.5134 = phi ptr [ %30, %31 ], [ %.2131, %51 ], [ %67, %65 ]
  %.3110 = phi i64 [ %28, %31 ], [ %48, %51 ], [ %66, %65 ]
  %.3 = phi i64 [ %.0, %31 ], [ %.1, %51 ], [ %.2, %65 ]
  %82 = add nsw i64 %.3, %.3110
  %83 = ptrtoint ptr %.5140 to i64
  %84 = ptrtoint ptr %4 to i64
  %85 = sub i64 %83, %84
  %86 = ashr exact i64 %85, 3
  store i64 %86, ptr %2, align 8
  %87 = ptrtoint ptr %.5134 to i64
  %88 = ptrtoint ptr %9 to i64
  %89 = sub i64 %87, %88
  %90 = ashr exact i64 %89, 3
  store i64 %90, ptr %7, align 8
  ret i64 %82
}